; Function Attrs: mustprogress uwtable
define void @_ZN16PickPointsDialog11clearPointsEb(ptr nocapture noundef nonnull align 8 dereferenceable(464) %0, i1 noundef zeroext %1) local_unnamed_addr #9 align 2 personality ptr @__gxx_personality_v0 {
  %3 = alloca %class.QCursor, align 8
  %4 = getelementptr inbounds i8, ptr %0, i64 328
  br i1 %1, label %.preheader, label %21

.preheader:                                       ; preds = %2
  %5 = getelementptr inbounds i8, ptr %0, i64 336
  %6 = load ptr, ptr %5, align 8
  %7 = load ptr, ptr %4, align 8
  %.not11 = icmp eq ptr %6, %7
  br i1 %.not11, label %._crit_edge.thread, label %_ZNSt6vectorIP25PickedPointTreeWidgetItemSaIS1_EE2atEm.exit

_ZNSt6vectorIP25PickedPointTreeWidgetItemSaIS1_EE2atEm.exit: ; preds = %.preheader, %_ZNSt6vectorIP25PickedPointTreeWidgetItemSaIS1_EE2atEm.exit
  %indvars.iv = phi i64 [ %indvars.iv.next, %_ZNSt6vectorIP25PickedPointTreeWidgetItemSaIS1_EE2atEm.exit ], [ 0, %.preheader ]
  %8 = phi ptr [ %12, %_ZNSt6vectorIP25PickedPointTreeWidgetItemSaIS1_EE2atEm.exit ], [ %7, %.preheader ]
  %9 = getelementptr inbounds ptr, ptr %8, i64 %indvars.iv
  %10 = load ptr, ptr %9, align 8
  tail call void @_ZN25PickedPointTreeWidgetItem10clearPointEv(ptr noundef nonnull align 8 dereferenceable(85) %10)
  %indvars.iv.next = add nuw nsw i64 %indvars.iv, 1
  %11 = load ptr, ptr %5, align 8
  %12 = load ptr, ptr %4, align 8
  %13 = ptrtoint ptr %11 to i64
  %14 = ptrtoint ptr %12 to i64
  %15 = sub i64 %13, %14
  %16 = ashr exact i64 %15, 3
  %17 = icmp ugt i64 %16, %indvars.iv.next
  br i1 %17, label %_ZNSt6vectorIP25PickedPointTreeWidgetItemSaIS1_EE2atEm.exit, label %._crit_edge, !llvm.loop !25

._crit_edge:                                      ; preds = %_ZNSt6vectorIP25PickedPointTreeWidgetItemSaIS1_EE2atEm.exit
  %.not = icmp eq ptr %11, %12
  br i1 %.not, label %._crit_edge.thread, label %_ZNSt6vectorIP25PickedPointTreeWidgetItemSaIS1_EE2atEm.exit6

_ZNSt6vectorIP25PickedPointTreeWidgetItemSaIS1_EE2atEm.exit6: ; preds = %._crit_edge
  %18 = getelementptr inbounds i8, ptr %0, i64 144
  %19 = load ptr, ptr %18, align 8
  %20 = load ptr, ptr %12, align 8
  tail call void @_ZN11QTreeWidget14setCurrentItemEP15QTreeWidgetItem(ptr noundef nonnull align 8 dereferenceable(48) %19, ptr noundef %20)
  br label %._crit_edge.thread

21:                                               ; preds = %2
  %22 = load ptr, ptr %4, align 8
  %23 = getelementptr inbounds i8, ptr %0, i64 336
  %24 = load ptr, ptr %23, align 8
  %.not.i.i7 = icmp eq ptr %24, %22
  br i1 %.not.i.i7, label %_ZNSt6vectorIP25PickedPointTreeWidgetItemSaIS1_EE5clearEv.exit, label %25

25:                                               ; preds = %21
  store ptr %22, ptr %23, align 8
  br label %_ZNSt6vectorIP25PickedPointTreeWidgetItemSaIS1_EE5clearEv.exit

_ZNSt6vectorIP25PickedPointTreeWidgetItemSaIS1_EE5clearEv.exit: ; preds = %21, %25
  %26 = getelementptr inbounds i8, ptr %0, i64 144
  %27 = load ptr, ptr %26, align 8
  tail call void @_ZN11QTreeWidget5clearEv(ptr noundef nonnull align 8 dereferenceable(48) %27)
  %28 = getelementptr inbounds i8, ptr %0, i64 408
  store i32 0, ptr %28, align 8
  br label %._crit_edge.thread

._crit_edge.thread:                               ; preds = %.preheader, %._crit_edge, %_ZNSt6vectorIP25PickedPointTreeWidgetItemSaIS1_EE2atEm.exit6, %_ZNSt6vectorIP25PickedPointTreeWidgetItemSaIS1_EE5clearEv.exit
  %29 = getelementptr inbounds i8, ptr %0, i64 392
  %30 = load ptr, ptr %29, align 8
  tail call void @_ZN7QWidget6updateEv(ptr noundef nonnull align 8 dereferenceable(48) %30)
  call void @llvm.lifetime.start.p0(i64 8, ptr nonnull %3)
  call void @_ZN7QCursorC1EN2Qt11CursorShapeE(ptr noundef nonnull align 8 dereferenceable(8) %3, i32 noundef 0)
  invoke void @_ZN15QGuiApplication17setOverrideCursorERK7QCursor(ptr noundef nonnull align 8 dereferenceable(8) %3)
          to label %_ZN16PickPointsDialog14togglePickModeEb.exit unwind label %31

31:                                               ; preds = %._crit_edge.thread
  %32 = landingpad { ptr, i32 }
          cleanup
  call void @_ZN7QCursorD1Ev(ptr noundef nonnull align 8 dereferenceable(8) %3) #27
  resume { ptr, i32 } %32

_ZN16PickPointsDialog14togglePickModeEb.exit:     ; preds = %._crit_edge.thread
  call void @_ZN7QCursorD1Ev(ptr noundef nonnull align 8 dereferenceable(8) %3) #27
  %33 = getelementptr inbounds i8, ptr %0, i64 48
  store i32 0, ptr %33, align 8
  %34 = getelementptr inbounds i8, ptr %0, i64 96
  %35 = load ptr, ptr %34, align 8
  call void @_ZN15QAbstractButton10setCheckedEb(ptr noundef nonnull align 8 dereferenceable(48) %35, i1 noundef zeroext true)
  call void @llvm.lifetime.end.p0(i64 8, ptr nonnull %3)
  ret void
}